; Function Attrs: mustprogress uwtable
define ptr @unorm2_getNFKDInstance_77(ptr noundef %0) local_unnamed_addr #6 {
  %2 = load i32, ptr %0, align 4, !tbaa !30
  %3 = icmp slt i32 %2, 1
  br i1 %3, label %4, label %_ZN6icu_7711Normalizer215getNFKDInstanceER10UErrorCode.exit

4:                                                ; preds = %1
  %5 = load atomic i32, ptr @_ZN6icu_77L12nfkcInitOnceE acquire, align 4
  %.not12.i.i.i = icmp eq i32 %5, 2
  br i1 %.not12.i.i.i, label %10, label %6

6:                                                ; preds = %4
  %7 = tail call noundef signext i8 @_ZN6icu_7720umtx_initImplPreInitERNS_9UInitOnceE(ptr noundef nonnull align 4 dereferenceable(8) @_ZN6icu_77L12nfkcInitOnceE)
  %.not13.i.i.i = icmp eq i8 %7, 0
  br i1 %.not13.i.i.i, label %10, label %8

8:                                                ; preds = %6
  tail call fastcc void @_ZN6icu_77L14initSingletonsEPKcR10UErrorCode(ptr noundef nonnull @.str.1, ptr noundef nonnull align 4 dereferenceable(4) %0)
  %9 = load i32, ptr %0, align 4, !tbaa !30
  store i32 %9, ptr getelementptr inbounds nuw (i8, ptr @_ZN6icu_77L12nfkcInitOnceE, i64 4), align 4, !tbaa !33
  tail call void @_ZN6icu_7721umtx_initImplPostInitERNS_9UInitOnceE(ptr noundef nonnull align 4 dereferenceable(8) @_ZN6icu_77L12nfkcInitOnceE)
  br label %_ZN6icu_7713umtx_initOnceIPKcEEvRNS_9UInitOnceEPFvT_R10UErrorCodeES5_S7_.exit.i.i

10:                                               ; preds = %6, %4
  %11 = load i32, ptr getelementptr inbounds nuw (i8, ptr @_ZN6icu_77L12nfkcInitOnceE, i64 4), align 4, !tbaa !33
  %12 = icmp slt i32 %11, 1
  br i1 %12, label %_ZN6icu_7713umtx_initOnceIPKcEEvRNS_9UInitOnceEPFvT_R10UErrorCodeES5_S7_.exit.i.i, label %13

13:                                               ; preds = %10
  store i32 %11, ptr %0, align 4, !tbaa !30
  br label %_ZN6icu_7713umtx_initOnceIPKcEEvRNS_9UInitOnceEPFvT_R10UErrorCodeES5_S7_.exit.i.i

_ZN6icu_7713umtx_initOnceIPKcEEvRNS_9UInitOnceEPFvT_R10UErrorCodeES5_S7_.exit.i.i: ; preds = %13, %10, %8
  %14 = load ptr, ptr @_ZN6icu_77L13nfkcSingletonE, align 8, !tbaa !34
  br label %_ZN6icu_7711Normalizer215getNFKDInstanceER10UErrorCode.exit

_ZN6icu_7711Normalizer215getNFKDInstanceER10UErrorCode.exit: ; preds = %1, %_ZN6icu_7713umtx_initOnceIPKcEEvRNS_9UInitOnceEPFvT_R10UErrorCodeES5_S7_.exit.i.i
  %.0.i.i = phi ptr [ %14, %_ZN6icu_7713umtx_initOnceIPKcEEvRNS_9UInitOnceEPFvT_R10UErrorCodeES5_S7_.exit.i.i ], [ null, %1 ]
  %.not.i = icmp eq ptr %.0.i.i, null
  %15 = getelementptr inbounds nuw i8, ptr %.0.i.i, i64 32
  %16 = select i1 %.not.i, ptr null, ptr %15
  ret ptr %16
}